target datalayout = "e-m:e-p270:32:32-p271:32:32-p272:64:64-i64:64-i128:128-f80:128-n8:16:32:64-S128"
target triple = "x86_64-pc-linux-gnu"

%union.pthread_mutex_t = type { %struct.__pthread_mutex_s }
%struct.__pthread_mutex_s = type { i32, i32, i32, i32, i32, i16, i16, %struct.__pthread_internal_list }
%struct.__pthread_internal_list = type { ptr, ptr }
%struct.repository = type { ptr, ptr, ptr, ptr, ptr, %struct.strmap, %struct.strmap, %struct.repo_path_cache, ptr, ptr, ptr, ptr, %struct.repo_settings, ptr, ptr, ptr, ptr, ptr, ptr, i32, i32, i32, ptr, ptr, i32, i32, i8 }
%struct.strmap = type { %struct.hashmap, ptr, i8 }
%struct.hashmap = type { ptr, ptr, ptr, i32, i32, i32, i32, i8 }
%struct.repo_path_cache = type { ptr, ptr, ptr, ptr, ptr, ptr, ptr }
%struct.repo_settings = type { i32, i32, i32, i32, i32, i32, i32, i32, i32, i32, i32, i32, ptr, i32, i32, i32, i32, i32, i32, i32, i64, i64, i64 }
%struct.raw_object_store = type { ptr, ptr, ptr, i32, ptr, ptr, i8, %union.pthread_mutex_t, ptr, i8, ptr, ptr, %struct.list_head, %struct.anon, %struct.hashmap, i64, i8 }
%struct.list_head = type { ptr, ptr }
%struct.anon = type { ptr, i32 }
%struct.object_directory = type { ptr, [8 x i32], ptr, ptr, i32, i32, ptr }

@the_repository = external global ptr, align 8
@.str.10 = private unnamed_addr constant [14 x i8] c"object-file.c\00", align 1
@.str.11 = private unnamed_addr constant [46 x i8] c"expected %s as primary object store; found %s\00", align 1
@.str.12 = private unnamed_addr constant [65 x i8] c"we expect the old primary object store to be the first alternate\00", align 1

; Function Attrs: nounwind uwtable
define dso_local void @restore_primary_odb(ptr noundef %0, ptr noundef %1) #0 {
  %3 = alloca ptr, align 8
  %4 = alloca ptr, align 8
  %5 = alloca ptr, align 8
  store ptr %0, ptr %3, align 8, !tbaa !78
  store ptr %1, ptr %4, align 8, !tbaa !12
  call void @llvm.lifetime.start.p0(i64 8, ptr %5) #14
  %6 = load ptr, ptr @the_repository, align 8, !tbaa !19
  %7 = getelementptr inbounds nuw %struct.repository, ptr %6, i32 0, i32 2
  %8 = load ptr, ptr %7, align 8, !tbaa !64
  %9 = getelementptr inbounds nuw %struct.raw_object_store, ptr %8, i32 0, i32 0
  %10 = load ptr, ptr %9, align 8, !tbaa !65
  store ptr %10, ptr %5, align 8, !tbaa !78
  %11 = load ptr, ptr %4, align 8, !tbaa !12
  %12 = load ptr, ptr %5, align 8, !tbaa !78
  %13 = getelementptr inbounds nuw %struct.object_directory, ptr %12, i32 0, i32 6
  %14 = load ptr, ptr %13, align 8, !tbaa !79
  %15 = call i32 @strcmp(ptr noundef %11, ptr noundef %14) #15
  %16 = icmp ne i32 %15, 0
  br i1 %16, label %17, label %22

17:                                               ; preds = %2
  %18 = load ptr, ptr %4, align 8, !tbaa !12
  %19 = load ptr, ptr %5, align 8, !tbaa !78
  %20 = getelementptr inbounds nuw %struct.object_directory, ptr %19, i32 0, i32 6
  %21 = load ptr, ptr %20, align 8, !tbaa !79
  call void (ptr, i32, ptr, ...) @BUG_fl(ptr noundef @.str.10, i32 noundef 806, ptr noundef @.str.11, ptr noundef %18, ptr noundef %21) #13
  unreachable

22:                                               ; preds = %2
  %23 = load ptr, ptr %5, align 8, !tbaa !78
  %24 = getelementptr inbounds nuw %struct.object_directory, ptr %23, i32 0, i32 0
  %25 = load ptr, ptr %24, align 8, !tbaa !97
  %26 = load ptr, ptr %3, align 8, !tbaa !78
  %27 = icmp ne ptr %25, %26
  br i1 %27, label %28, label %29

28:                                               ; preds = %22
  call void (ptr, i32, ptr, ...) @BUG_fl(ptr noundef @.str.10, i32 noundef 809, ptr noundef @.str.12) #13
  unreachable

29:                                               ; preds = %22
  %30 = load ptr, ptr %3, align 8, !tbaa !78
  %31 = load ptr, ptr @the_repository, align 8, !tbaa !19
  %32 = getelementptr inbounds nuw %struct.repository, ptr %31, i32 0, i32 2
  %33 = load ptr, ptr %32, align 8, !tbaa !64
  %34 = getelementptr inbounds nuw %struct.raw_object_store, ptr %33, i32 0, i32 0
  store ptr %30, ptr %34, align 8, !tbaa !65
  %35 = load ptr, ptr %5, align 8, !tbaa !78
  call void @free_object_directory(ptr noundef %35)
  call void @llvm.lifetime.end.p0(i64 8, ptr %5) #14
  ret void
}