; Function Attrs: nounwind uwtable
define dso_local void @restore_primary_odb(ptr noundef %0, ptr noundef %1) local_unnamed_addr #1 {
  %3 = load ptr, ptr @the_repository, align 8, !tbaa !9
  %4 = getelementptr inbounds nuw i8, ptr %3, i64 16
  %5 = load ptr, ptr %4, align 8, !tbaa !54
  %6 = load ptr, ptr %5, align 8, !tbaa !55
  %7 = getelementptr inbounds nuw i8, ptr %6, i64 64
  %8 = load ptr, ptr %7, align 8, !tbaa !68
  %9 = tail call i32 @strcmp(ptr noundef nonnull dereferenceable(1) %1, ptr noundef nonnull dereferenceable(1) %8) #28
  %.not = icmp eq i32 %9, 0
  br i1 %.not, label %11, label %10

10:                                               ; preds = %2
  tail call void (ptr, i32, ptr, ...) @BUG_fl(ptr noundef nonnull @.str.10, i32 noundef 806, ptr noundef nonnull @.str.11, ptr noundef nonnull %1, ptr noundef nonnull %8) #26
  unreachable

11:                                               ; preds = %2
  %12 = load ptr, ptr %6, align 8, !tbaa !88
  %.not8 = icmp eq ptr %12, %0
  br i1 %.not8, label %14, label %13

13:                                               ; preds = %11
  tail call void (ptr, i32, ptr, ...) @BUG_fl(ptr noundef nonnull @.str.10, i32 noundef 809, ptr noundef nonnull @.str.12) #26
  unreachable

14:                                               ; preds = %11
  store ptr %0, ptr %5, align 8, !tbaa !55
  tail call void @free_object_directory(ptr noundef nonnull %6) #27
  ret void
}